target datalayout = "e-m:e-p270:32:32-p271:32:32-p272:64:64-i64:64-i128:128-f80:128-n8:16:32:64-S128"
target triple = "x86_64-pc-linux-gnu"

%struct.JsonLexContext = type { ptr, i64, i32, ptr, ptr, ptr, i8, i32, i32, i32, i32, ptr, ptr, ptr, i8, ptr, ptr }
%struct.JsonIncrementalState = type { i8, i8, i8, %struct.PQExpBufferData }
%struct.PQExpBufferData = type { ptr, i64, i64 }
%struct.JsonParserStack = type { i32, ptr, i64, ptr, ptr, i32, ptr }

@failed_oom = internal global %struct.JsonLexContext zeroinitializer, align 8
@freeJsonLexContext.empty = internal constant { ptr, i64, i32, [4 x i8], ptr, ptr, ptr, i8, [3 x i8], i32, i32, i32, i32, [4 x i8], ptr, ptr, ptr, i8, [7 x i8], ptr, ptr } zeroinitializer, align 8

; Function Attrs: nounwind uwtable
define void @freeJsonLexContext(ptr noundef %0) #1 {
  %2 = alloca ptr, align 8
  %3 = alloca i32, align 4
  store ptr %0, ptr %2, align 8
  %4 = load ptr, ptr %2, align 8
  %5 = icmp ne ptr %4, null
  br i1 %5, label %6, label %9

6:                                                ; preds = %1
  %7 = load ptr, ptr %2, align 8
  %8 = icmp eq ptr %7, @failed_oom
  br i1 %8, label %9, label %10

9:                                                ; preds = %6, %1
  br label %102

10:                                               ; preds = %6
  %11 = load ptr, ptr %2, align 8
  %12 = getelementptr inbounds nuw %struct.JsonLexContext, ptr %11, i32 0, i32 9
  %13 = load i32, ptr %12, align 4
  %14 = and i32 %13, 2
  %15 = icmp ne i32 %14, 0
  br i1 %15, label %16, label %20

16:                                               ; preds = %10
  %17 = load ptr, ptr %2, align 8
  %18 = getelementptr inbounds nuw %struct.JsonLexContext, ptr %17, i32 0, i32 15
  %19 = load ptr, ptr %18, align 8
  call void @destroyPQExpBuffer(ptr noundef %19)
  br label %20

20:                                               ; preds = %16, %10
  %21 = load ptr, ptr %2, align 8
  %22 = getelementptr inbounds nuw %struct.JsonLexContext, ptr %21, i32 0, i32 16
  %23 = load ptr, ptr %22, align 8
  %24 = icmp ne ptr %23, null
  br i1 %24, label %25, label %29

25:                                               ; preds = %20
  %26 = load ptr, ptr %2, align 8
  %27 = getelementptr inbounds nuw %struct.JsonLexContext, ptr %26, i32 0, i32 16
  %28 = load ptr, ptr %27, align 8
  call void @destroyPQExpBuffer(ptr noundef %28)
  br label %29

29:                                               ; preds = %25, %20
  %30 = load ptr, ptr %2, align 8
  %31 = getelementptr inbounds nuw %struct.JsonLexContext, ptr %30, i32 0, i32 6
  %32 = load i8, ptr %31, align 8, !range !3, !noundef !4
  %33 = trunc i8 %32 to i1
  br i1 %33, label %34, label %92

34:                                               ; preds = %29
  %35 = load ptr, ptr %2, align 8
  %36 = getelementptr inbounds nuw %struct.JsonLexContext, ptr %35, i32 0, i32 13
  %37 = load ptr, ptr %36, align 8
  %38 = getelementptr inbounds nuw %struct.JsonIncrementalState, ptr %37, i32 0, i32 3
  call void @termPQExpBuffer(ptr noundef %38)
  %39 = load ptr, ptr %2, align 8
  %40 = getelementptr inbounds nuw %struct.JsonLexContext, ptr %39, i32 0, i32 13
  %41 = load ptr, ptr %40, align 8
  call void @free(ptr noundef %41) #15
  %42 = load ptr, ptr %2, align 8
  %43 = getelementptr inbounds nuw %struct.JsonLexContext, ptr %42, i32 0, i32 12
  %44 = load ptr, ptr %43, align 8
  %45 = getelementptr inbounds nuw %struct.JsonParserStack, ptr %44, i32 0, i32 1
  %46 = load ptr, ptr %45, align 8
  call void @free(ptr noundef %46) #15
  %47 = load ptr, ptr %2, align 8
  %48 = getelementptr inbounds nuw %struct.JsonLexContext, ptr %47, i32 0, i32 9
  %49 = load i32, ptr %48, align 4
  %50 = and i32 %49, 4
  %51 = icmp ne i32 %50, 0
  br i1 %51, label %52, label %73

52:                                               ; preds = %34
  call void @llvm.lifetime.start.p0(i64 4, ptr %3) #15
  store i32 0, ptr %3, align 4
  br label %53

53:                                               ; preds = %69, %52
  %54 = load i32, ptr %3, align 4
  %55 = load ptr, ptr %2, align 8
  %56 = getelementptr inbounds nuw %struct.JsonLexContext, ptr %55, i32 0, i32 8
  %57 = load i32, ptr %56, align 8
  %58 = icmp sle i32 %54, %57
  br i1 %58, label %59, label %72

59:                                               ; preds = %53
  %60 = load ptr, ptr %2, align 8
  %61 = getelementptr inbounds nuw %struct.JsonLexContext, ptr %60, i32 0, i32 12
  %62 = load ptr, ptr %61, align 8
  %63 = getelementptr inbounds nuw %struct.JsonParserStack, ptr %62, i32 0, i32 3
  %64 = load ptr, ptr %63, align 8
  %65 = load i32, ptr %3, align 4
  %66 = sext i32 %65 to i64
  %67 = getelementptr inbounds ptr, ptr %64, i64 %66
  %68 = load ptr, ptr %67, align 8
  call void @free(ptr noundef %68) #15
  br label %69

69:                                               ; preds = %59
  %70 = load i32, ptr %3, align 4
  %71 = add i32 %70, 1
  store i32 %71, ptr %3, align 4
  br label %53, !llvm.loop !10

72:                                               ; preds = %53
  call void @llvm.lifetime.end.p0(i64 4, ptr %3) #15
  br label %73

73:                                               ; preds = %72, %34
  %74 = load ptr, ptr %2, align 8
  %75 = getelementptr inbounds nuw %struct.JsonLexContext, ptr %74, i32 0, i32 12
  %76 = load ptr, ptr %75, align 8
  %77 = getelementptr inbounds nuw %struct.JsonParserStack, ptr %76, i32 0, i32 3
  %78 = load ptr, ptr %77, align 8
  call void @free(ptr noundef %78) #15
  %79 = load ptr, ptr %2, align 8
  %80 = getelementptr inbounds nuw %struct.JsonLexContext, ptr %79, i32 0, i32 12
  %81 = load ptr, ptr %80, align 8
  %82 = getelementptr inbounds nuw %struct.JsonParserStack, ptr %81, i32 0, i32 4
  %83 = load ptr, ptr %82, align 8
  call void @free(ptr noundef %83) #15
  %84 = load ptr, ptr %2, align 8
  %85 = getelementptr inbounds nuw %struct.JsonLexContext, ptr %84, i32 0, i32 12
  %86 = load ptr, ptr %85, align 8
  %87 = getelementptr inbounds nuw %struct.JsonParserStack, ptr %86, i32 0, i32 6
  %88 = load ptr, ptr %87, align 8
  call void @free(ptr noundef %88) #15
  %89 = load ptr, ptr %2, align 8
  %90 = getelementptr inbounds nuw %struct.JsonLexContext, ptr %89, i32 0, i32 12
  %91 = load ptr, ptr %90, align 8
  call void @free(ptr noundef %91) #15
  br label %92

92:                                               ; preds = %73, %29
  %93 = load ptr, ptr %2, align 8
  %94 = getelementptr inbounds nuw %struct.JsonLexContext, ptr %93, i32 0, i32 9
  %95 = load i32, ptr %94, align 4
  %96 = and i32 %95, 1
  %97 = icmp ne i32 %96, 0
  br i1 %97, label %98, label %100

98:                                               ; preds = %92
  %99 = load ptr, ptr %2, align 8
  call void @free(ptr noundef %99) #15
  br label %102

100:                                              ; preds = %92
  %101 = load ptr, ptr %2, align 8
  call void @llvm.memcpy.p0.p0.i64(ptr align 8 %101, ptr align 8 @freeJsonLexContext.empty, i64 120, i1 false)
  br label %102

102:                                              ; preds = %9, %100, %98
  ret void
}