; Function Attrs: nounwind uwtable
define void @freeJsonLexContext(ptr noundef captures(address) %0) local_unnamed_addr #1 {
  %2 = icmp eq ptr %0, null
  %3 = icmp eq ptr %0, @failed_oom
  %or.cond = or i1 %2, %3
  br i1 %or.cond, label %55, label %4

4:                                                ; preds = %1
  %5 = getelementptr inbounds nuw i8, ptr %0, i64 60
  %6 = load i32, ptr %5, align 4
  %7 = and i32 %6, 2
  %.not = icmp eq i32 %7, 0
  br i1 %.not, label %11, label %8

8:                                                ; preds = %4
  %9 = getelementptr inbounds nuw i8, ptr %0, i64 104
  %10 = load ptr, ptr %9, align 8
  tail call void @destroyPQExpBuffer(ptr noundef %10) #16
  br label %11

11:                                               ; preds = %8, %4
  %12 = getelementptr inbounds nuw i8, ptr %0, i64 112
  %13 = load ptr, ptr %12, align 8
  %.not25 = icmp eq ptr %13, null
  br i1 %.not25, label %15, label %14

14:                                               ; preds = %11
  tail call void @destroyPQExpBuffer(ptr noundef nonnull %13) #16
  br label %15

15:                                               ; preds = %14, %11
  %16 = getelementptr inbounds nuw i8, ptr %0, i64 48
  %17 = load i8, ptr %16, align 8, !range !3, !noundef !4
  %18 = trunc nuw i8 %17 to i1
  br i1 %18, label %19, label %50

19:                                               ; preds = %15
  %20 = getelementptr inbounds nuw i8, ptr %0, i64 88
  %21 = load ptr, ptr %20, align 8
  %22 = getelementptr inbounds nuw i8, ptr %21, i64 8
  tail call void @termPQExpBuffer(ptr noundef nonnull %22) #16
  %23 = load ptr, ptr %20, align 8
  tail call void @free(ptr noundef %23) #16
  %24 = getelementptr inbounds nuw i8, ptr %0, i64 80
  %25 = load ptr, ptr %24, align 8
  %26 = getelementptr inbounds nuw i8, ptr %25, i64 8
  %27 = load ptr, ptr %26, align 8
  tail call void @free(ptr noundef %27) #16
  %28 = load i32, ptr %5, align 4
  %29 = and i32 %28, 4
  %.not26 = icmp eq i32 %29, 0
  br i1 %.not26, label %.loopexit, label %.preheader

.preheader:                                       ; preds = %19
  %30 = getelementptr inbounds nuw i8, ptr %0, i64 56
  %31 = load i32, ptr %30, align 8
  %.not2729 = icmp slt i32 %31, 0
  br i1 %.not2729, label %.loopexit, label %.lr.ph

.lr.ph:                                           ; preds = %.preheader, %.lr.ph
  %.030 = phi i32 [ %38, %.lr.ph ], [ 0, %.preheader ]
  %32 = load ptr, ptr %24, align 8
  %33 = getelementptr inbounds nuw i8, ptr %32, i64 24
  %34 = load ptr, ptr %33, align 8
  %35 = sext i32 %.030 to i64
  %36 = getelementptr inbounds ptr, ptr %34, i64 %35
  %37 = load ptr, ptr %36, align 8
  tail call void @free(ptr noundef %37) #16
  %38 = add i32 %.030, 1
  %39 = load i32, ptr %30, align 8
  %.not27 = icmp sgt i32 %38, %39
  br i1 %.not27, label %.loopexit, label %.lr.ph, !llvm.loop !10

.loopexit:                                        ; preds = %.lr.ph, %.preheader, %19
  %40 = load ptr, ptr %24, align 8
  %41 = getelementptr inbounds nuw i8, ptr %40, i64 24
  %42 = load ptr, ptr %41, align 8
  tail call void @free(ptr noundef %42) #16
  %43 = load ptr, ptr %24, align 8
  %44 = getelementptr inbounds nuw i8, ptr %43, i64 32
  %45 = load ptr, ptr %44, align 8
  tail call void @free(ptr noundef %45) #16
  %46 = load ptr, ptr %24, align 8
  %47 = getelementptr inbounds nuw i8, ptr %46, i64 48
  %48 = load ptr, ptr %47, align 8
  tail call void @free(ptr noundef %48) #16
  %49 = load ptr, ptr %24, align 8
  tail call void @free(ptr noundef %49) #16
  br label %50

50:                                               ; preds = %.loopexit, %15
  %51 = load i32, ptr %5, align 4
  %52 = and i32 %51, 1
  %.not28 = icmp eq i32 %52, 0
  br i1 %.not28, label %54, label %53

53:                                               ; preds = %50
  tail call void @free(ptr noundef nonnull %0) #16
  br label %55

54:                                               ; preds = %50
  tail call void @llvm.memset.p0.i64(ptr noundef nonnull align 8 dereferenceable(120) %0, i8 0, i64 120, i1 false)
  br label %55

55:                                               ; preds = %1, %54, %53
  ret void
}